target datalayout = "e-m:e-p270:32:32-p271:32:32-p272:64:64-i64:64-i128:128-f80:128-n8:16:32:64-S128"
target triple = "x86_64-pc-linux-gnu"

%struct.HASHCTL = type { i64, i64, i64, i64, i64, i64, ptr, ptr, ptr, ptr, ptr, ptr }
%struct.TupleDescData = type { i32, i32, i32, i32, ptr, [0 x %struct.CompactAttribute] }
%struct.CompactAttribute = type { i32, i16, i8, i8, i8, i8, i8, i8, i8 }
%struct.RecordCacheArrayEntry = type { i64, ptr }
%struct.RecordCacheEntry = type { ptr }

@CacheMemoryContext = external global ptr, align 8
@RecordCacheHash = internal global ptr null, align 8
@.str.7 = private unnamed_addr constant [25 x i8] c"Record information cache\00", align 1
@NextRecordTypmod = internal global i32 0, align 4
@RecordCacheArray = internal global ptr null, align 8
@tupledesc_id_counter = internal global i64 1, align 8
@RecordCacheArrayLen = internal global i32 0, align 4
@CurrentMemoryContext = external global ptr, align 8

; Function Attrs: inlinehint nounwind uwtable
define internal i32 @pg_leftmost_one_pos32(i32 noundef %0) #3 {
  %2 = alloca i32, align 4
  store i32 %0, ptr %2, align 4
  %3 = load i32, ptr %2, align 4
  %4 = call i32 @llvm.ctlz.i32(i32 %3, i1 true)
  %5 = sub i32 31, %4
  ret i32 %5
}

; Function Attrs: inlinehint nounwind uwtable
define internal i32 @pg_nextpower2_32(i32 noundef %0) #3 {
  %2 = alloca i32, align 4
  %3 = alloca i32, align 4
  store i32 %0, ptr %3, align 4
  %4 = load i32, ptr %3, align 4
  %5 = load i32, ptr %3, align 4
  %6 = sub i32 %5, 1
  %7 = and i32 %4, %6
  %8 = icmp eq i32 %7, 0
  br i1 %8, label %9, label %11

9:                                                ; preds = %1
  %10 = load i32, ptr %3, align 4
  store i32 %10, ptr %2, align 4
  br label %16

11:                                               ; preds = %1
  %12 = load i32, ptr %3, align 4
  %13 = call i32 @pg_leftmost_one_pos32(i32 noundef %12)
  %14 = add i32 %13, 1
  %15 = shl i32 1, %14
  store i32 %15, ptr %2, align 4
  br label %16

16:                                               ; preds = %11, %9
  %17 = load i32, ptr %2, align 4
  ret i32 %17
}

; Function Attrs: nounwind uwtable
define internal void @ensure_record_cache_typmod_slot_exists(i32 noundef %0) #0 {
  %2 = alloca i32, align 4
  %3 = alloca i32, align 4
  store i32 %0, ptr %2, align 4
  %4 = load ptr, ptr @RecordCacheArray, align 8
  %5 = icmp eq ptr %4, null
  br i1 %5, label %6, label %9

6:                                                ; preds = %1
  %7 = load ptr, ptr @CacheMemoryContext, align 8
  %8 = call ptr @MemoryContextAllocZero(ptr noundef %7, i64 noundef 1024)
  store ptr %8, ptr @RecordCacheArray, align 8
  store i32 64, ptr @RecordCacheArrayLen, align 4
  br label %9

9:                                                ; preds = %6, %1
  %10 = load i32, ptr %2, align 4
  %11 = load i32, ptr @RecordCacheArrayLen, align 4
  %12 = icmp sge i32 %10, %11
  br i1 %12, label %13, label %26

13:                                               ; preds = %9
  call void @llvm.lifetime.start.p0(i64 4, ptr %3) #11
  %14 = load i32, ptr %2, align 4
  %15 = add i32 %14, 1
  %16 = call i32 @pg_nextpower2_32(i32 noundef %15)
  store i32 %16, ptr %3, align 4
  %17 = load ptr, ptr @RecordCacheArray, align 8
  %18 = load i32, ptr @RecordCacheArrayLen, align 4
  %19 = sext i32 %18 to i64
  %20 = mul i64 16, %19
  %21 = load i32, ptr %3, align 4
  %22 = sext i32 %21 to i64
  %23 = mul i64 16, %22
  %24 = call ptr @repalloc0(ptr noundef %17, i64 noundef %20, i64 noundef %23)
  store ptr %24, ptr @RecordCacheArray, align 8
  %25 = load i32, ptr %3, align 4
  store i32 %25, ptr @RecordCacheArrayLen, align 4
  call void @llvm.lifetime.end.p0(i64 4, ptr %3) #11
  br label %26

26:                                               ; preds = %13, %9
  ret void
}

; Function Attrs: inlinehint nounwind uwtable
define internal ptr @MemoryContextSwitchTo(ptr noundef %0) #3 {
  %2 = alloca ptr, align 8
  %3 = alloca ptr, align 8
  store ptr %0, ptr %2, align 8
  call void @llvm.lifetime.start.p0(i64 8, ptr %3) #11
  %4 = load ptr, ptr @CurrentMemoryContext, align 8
  store ptr %4, ptr %3, align 8
  %5 = load ptr, ptr %2, align 8
  store ptr %5, ptr @CurrentMemoryContext, align 8
  %6 = load ptr, ptr %3, align 8
  call void @llvm.lifetime.end.p0(i64 8, ptr %3) #11
  ret ptr %6
}

; Function Attrs: nounwind uwtable
define dso_local void @assign_record_type_typmod(ptr noundef %0) #0 {
  %2 = alloca ptr, align 8
  %3 = alloca ptr, align 8
  %4 = alloca ptr, align 8
  %5 = alloca i8, align 1
  %6 = alloca ptr, align 8
  %7 = alloca %struct.HASHCTL, align 8
  %8 = alloca i32, align 4
  store ptr %0, ptr %2, align 8
  call void @llvm.lifetime.start.p0(i64 8, ptr %3) #11
  call void @llvm.lifetime.start.p0(i64 8, ptr %4) #11
  call void @llvm.lifetime.start.p0(i64 1, ptr %5) #11
  call void @llvm.lifetime.start.p0(i64 8, ptr %6) #11
  %9 = load ptr, ptr @RecordCacheHash, align 8
  %10 = icmp eq ptr %9, null
  br i1 %10, label %11, label %21

11:                                               ; preds = %1
  call void @llvm.lifetime.start.p0(i64 96, ptr %7) #11
  %12 = getelementptr inbounds nuw %struct.HASHCTL, ptr %7, i32 0, i32 4
  store i64 8, ptr %12, align 8
  %13 = getelementptr inbounds nuw %struct.HASHCTL, ptr %7, i32 0, i32 5
  store i64 8, ptr %13, align 8
  %14 = getelementptr inbounds nuw %struct.HASHCTL, ptr %7, i32 0, i32 6
  store ptr @record_type_typmod_hash, ptr %14, align 8
  %15 = getelementptr inbounds nuw %struct.HASHCTL, ptr %7, i32 0, i32 7
  store ptr @record_type_typmod_compare, ptr %15, align 8
  %16 = call ptr @hash_create(ptr noundef @.str.7, i64 noundef 64, ptr noundef %7, i32 noundef 200)
  store ptr %16, ptr @RecordCacheHash, align 8
  %17 = load ptr, ptr @CacheMemoryContext, align 8
  %18 = icmp ne ptr %17, null
  br i1 %18, label %20, label %19

19:                                               ; preds = %11
  call void @CreateCacheMemoryContext()
  br label %20

20:                                               ; preds = %19, %11
  call void @llvm.lifetime.end.p0(i64 96, ptr %7) #11
  br label %21

21:                                               ; preds = %20, %1
  %22 = load ptr, ptr @RecordCacheHash, align 8
  %23 = call ptr @hash_search(ptr noundef %22, ptr noundef %2, i32 noundef 0, ptr noundef %5)
  store ptr %23, ptr %3, align 8
  %24 = load i8, ptr %5, align 1, !range !4, !noundef !5
  %25 = trunc i8 %24 to i1
  br i1 %25, label %26, label %39

26:                                               ; preds = %21
  %27 = load ptr, ptr %3, align 8
  %28 = getelementptr inbounds nuw %struct.RecordCacheEntry, ptr %27, i32 0, i32 0
  %29 = load ptr, ptr %28, align 8
  %30 = icmp ne ptr %29, null
  br i1 %30, label %31, label %39

31:                                               ; preds = %26
  %32 = load ptr, ptr %3, align 8
  %33 = getelementptr inbounds nuw %struct.RecordCacheEntry, ptr %32, i32 0, i32 0
  %34 = load ptr, ptr %33, align 8
  %35 = getelementptr inbounds nuw %struct.TupleDescData, ptr %34, i32 0, i32 2
  %36 = load i32, ptr %35, align 8
  %37 = load ptr, ptr %2, align 8
  %38 = getelementptr inbounds nuw %struct.TupleDescData, ptr %37, i32 0, i32 2
  store i32 %36, ptr %38, align 8
  store i32 1, ptr %8, align 4
  br label %90

39:                                               ; preds = %26, %21
  %40 = load ptr, ptr @CacheMemoryContext, align 8
  %41 = call ptr @MemoryContextSwitchTo(ptr noundef %40)
  store ptr %41, ptr %6, align 8
  %42 = load ptr, ptr %2, align 8
  %43 = call ptr @find_or_make_matching_shared_tupledesc(ptr noundef %42)
  store ptr %43, ptr %4, align 8
  %44 = load ptr, ptr %4, align 8
  %45 = icmp eq ptr %44, null
  br i1 %45, label %46, label %56

46:                                               ; preds = %39
  %47 = load i32, ptr @NextRecordTypmod, align 4
  call void @ensure_record_cache_typmod_slot_exists(i32 noundef %47)
  %48 = load ptr, ptr %2, align 8
  %49 = call ptr @CreateTupleDescCopy(ptr noundef %48)
  store ptr %49, ptr %4, align 8
  %50 = load ptr, ptr %4, align 8
  %51 = getelementptr inbounds nuw %struct.TupleDescData, ptr %50, i32 0, i32 3
  store i32 1, ptr %51, align 4
  %52 = load i32, ptr @NextRecordTypmod, align 4
  %53 = add i32 %52, 1
  store i32 %53, ptr @NextRecordTypmod, align 4
  %54 = load ptr, ptr %4, align 8
  %55 = getelementptr inbounds nuw %struct.TupleDescData, ptr %54, i32 0, i32 2
  store i32 %52, ptr %55, align 8
  br label %60

56:                                               ; preds = %39
  %57 = load ptr, ptr %4, align 8
  %58 = getelementptr inbounds nuw %struct.TupleDescData, ptr %57, i32 0, i32 2
  %59 = load i32, ptr %58, align 8
  call void @ensure_record_cache_typmod_slot_exists(i32 noundef %59)
  br label %60

60:                                               ; preds = %56, %46
  %61 = load ptr, ptr %4, align 8
  %62 = load ptr, ptr @RecordCacheArray, align 8
  %63 = load ptr, ptr %4, align 8
  %64 = getelementptr inbounds nuw %struct.TupleDescData, ptr %63, i32 0, i32 2
  %65 = load i32, ptr %64, align 8
  %66 = sext i32 %65 to i64
  %67 = getelementptr inbounds %struct.RecordCacheArrayEntry, ptr %62, i64 %66
  %68 = getelementptr inbounds nuw %struct.RecordCacheArrayEntry, ptr %67, i32 0, i32 1
  store ptr %61, ptr %68, align 8
  %69 = load i64, ptr @tupledesc_id_counter, align 8
  %70 = add i64 %69, 1
  store i64 %70, ptr @tupledesc_id_counter, align 8
  %71 = load ptr, ptr @RecordCacheArray, align 8
  %72 = load ptr, ptr %4, align 8
  %73 = getelementptr inbounds nuw %struct.TupleDescData, ptr %72, i32 0, i32 2
  %74 = load i32, ptr %73, align 8
  %75 = sext i32 %74 to i64
  %76 = getelementptr inbounds %struct.RecordCacheArrayEntry, ptr %71, i64 %75
  %77 = getelementptr inbounds nuw %struct.RecordCacheArrayEntry, ptr %76, i32 0, i32 0
  store i64 %70, ptr %77, align 8
  %78 = load ptr, ptr @RecordCacheHash, align 8
  %79 = call ptr @hash_search(ptr noundef %78, ptr noundef %2, i32 noundef 1, ptr noundef null)
  store ptr %79, ptr %3, align 8
  %80 = load ptr, ptr %4, align 8
  %81 = load ptr, ptr %3, align 8
  %82 = getelementptr inbounds nuw %struct.RecordCacheEntry, ptr %81, i32 0, i32 0
  store ptr %80, ptr %82, align 8
  %83 = load ptr, ptr %4, align 8
  %84 = getelementptr inbounds nuw %struct.TupleDescData, ptr %83, i32 0, i32 2
  %85 = load i32, ptr %84, align 8
  %86 = load ptr, ptr %2, align 8
  %87 = getelementptr inbounds nuw %struct.TupleDescData, ptr %86, i32 0, i32 2
  store i32 %85, ptr %87, align 8
  %88 = load ptr, ptr %6, align 8
  %89 = call ptr @MemoryContextSwitchTo(ptr noundef %88)
  store i32 0, ptr %8, align 4
  br label %90

90:                                               ; preds = %60, %31
  call void @llvm.lifetime.end.p0(i64 8, ptr %6) #11
  call void @llvm.lifetime.end.p0(i64 1, ptr %5) #11
  call void @llvm.lifetime.end.p0(i64 8, ptr %4) #11
  call void @llvm.lifetime.end.p0(i64 8, ptr %3) #11
  %91 = load i32, ptr %8, align 4
  switch i32 %91, label %93 [
    i32 0, label %92
    i32 1, label %92
  ]

92:                                               ; preds = %90, %90
  ret void

93:                                               ; preds = %90
  unreachable
}