; Function Attrs: nounwind uwtable
define dso_local void @assign_record_type_typmod(ptr noundef %0) local_unnamed_addr #0 {
  %2 = alloca ptr, align 8
  %3 = alloca i8, align 1
  %4 = alloca %struct.HASHCTL, align 8
  store ptr %0, ptr %2, align 8
  call void @llvm.lifetime.start.p0(i64 1, ptr nonnull %3) #16
  %5 = load ptr, ptr @RecordCacheHash, align 8
  %6 = icmp eq ptr %5, null
  br i1 %6, label %7, label %16

7:                                                ; preds = %1
  call void @llvm.lifetime.start.p0(i64 96, ptr nonnull %4) #16
  %8 = getelementptr inbounds nuw i8, ptr %4, i64 32
  store i64 8, ptr %8, align 8
  %9 = getelementptr inbounds nuw i8, ptr %4, i64 40
  store i64 8, ptr %9, align 8
  %10 = getelementptr inbounds nuw i8, ptr %4, i64 48
  store ptr @record_type_typmod_hash, ptr %10, align 8
  %11 = getelementptr inbounds nuw i8, ptr %4, i64 56
  store ptr @record_type_typmod_compare, ptr %11, align 8
  %12 = call ptr @hash_create(ptr noundef nonnull @.str.7, i64 noundef 64, ptr noundef nonnull %4, i32 noundef 200) #16
  store ptr %12, ptr @RecordCacheHash, align 8
  %13 = load ptr, ptr @CacheMemoryContext, align 8
  %.not = icmp eq ptr %13, null
  br i1 %.not, label %14, label %15

14:                                               ; preds = %7
  call void @CreateCacheMemoryContext() #16
  %.pre.pre = load ptr, ptr @RecordCacheHash, align 8
  br label %15

15:                                               ; preds = %14, %7
  %.pre = phi ptr [ %.pre.pre, %14 ], [ %12, %7 ]
  call void @llvm.lifetime.end.p0(i64 96, ptr nonnull %4) #16
  br label %16

16:                                               ; preds = %15, %1
  %17 = phi ptr [ %.pre, %15 ], [ %5, %1 ]
  %18 = call ptr @hash_search(ptr noundef %17, ptr noundef nonnull %2, i32 noundef 0, ptr noundef nonnull %3) #16
  %19 = load i8, ptr %3, align 1, !range !4, !noundef !5
  %20 = trunc nuw i8 %19 to i1
  br i1 %20, label %21, label %28

21:                                               ; preds = %16
  %22 = load ptr, ptr %18, align 8
  %.not15 = icmp eq ptr %22, null
  br i1 %.not15, label %28, label %23

23:                                               ; preds = %21
  %24 = getelementptr inbounds nuw i8, ptr %22, i64 8
  %25 = load i32, ptr %24, align 8
  %26 = load ptr, ptr %2, align 8
  %27 = getelementptr inbounds nuw i8, ptr %26, i64 8
  store i32 %25, ptr %27, align 8
  br label %100

28:                                               ; preds = %21, %16
  %29 = load ptr, ptr @CacheMemoryContext, align 8
  %30 = load ptr, ptr @CurrentMemoryContext, align 8
  store ptr %29, ptr @CurrentMemoryContext, align 8
  %31 = load ptr, ptr %2, align 8
  %32 = call fastcc ptr @find_or_make_matching_shared_tupledesc(ptr noundef %31)
  %33 = icmp eq ptr %32, null
  br i1 %33, label %34, label %62

34:                                               ; preds = %28
  %35 = load i32, ptr @NextRecordTypmod, align 4
  %36 = load ptr, ptr @RecordCacheArray, align 8
  %37 = icmp eq ptr %36, null
  br i1 %37, label %38, label %._crit_edge.i

._crit_edge.i:                                    ; preds = %34
  %.pre.i = load i32, ptr @RecordCacheArrayLen, align 4
  br label %41

38:                                               ; preds = %34
  %39 = load ptr, ptr @CacheMemoryContext, align 8
  %40 = call ptr @MemoryContextAllocZero(ptr noundef %39, i64 noundef 1024) #16
  store ptr %40, ptr @RecordCacheArray, align 8
  store i32 64, ptr @RecordCacheArrayLen, align 4
  br label %41

41:                                               ; preds = %38, %._crit_edge.i
  %42 = phi ptr [ %36, %._crit_edge.i ], [ %40, %38 ]
  %43 = phi i32 [ %.pre.i, %._crit_edge.i ], [ 64, %38 ]
  %.not.i = icmp slt i32 %35, %43
  br i1 %.not.i, label %ensure_record_cache_typmod_slot_exists.exit, label %44

44:                                               ; preds = %41
  %45 = add i32 %35, 1
  %46 = call range(i32 0, 33) i32 @llvm.ctpop.i32(i32 %45)
  %47 = icmp samesign ult i32 %46, 2
  %48 = call range(i32 0, 33) i32 @llvm.ctlz.i32(i32 %45, i1 true)
  %49 = xor i32 %48, 31
  %50 = shl nuw i32 2, %49
  %.0.i.i = select i1 %47, i32 %45, i32 %50
  %51 = sext i32 %43 to i64
  %52 = shl nsw i64 %51, 4
  %53 = sext i32 %.0.i.i to i64
  %54 = shl nsw i64 %53, 4
  %55 = call ptr @repalloc0(ptr noundef %42, i64 noundef %52, i64 noundef %54) #16
  store ptr %55, ptr @RecordCacheArray, align 8
  store i32 %.0.i.i, ptr @RecordCacheArrayLen, align 4
  br label %ensure_record_cache_typmod_slot_exists.exit

ensure_record_cache_typmod_slot_exists.exit:      ; preds = %41, %44
  %56 = load ptr, ptr %2, align 8
  %57 = call ptr @CreateTupleDescCopy(ptr noundef %56) #16
  %58 = getelementptr inbounds nuw i8, ptr %57, i64 12
  store i32 1, ptr %58, align 4
  %59 = load i32, ptr @NextRecordTypmod, align 4
  %60 = add i32 %59, 1
  store i32 %60, ptr @NextRecordTypmod, align 4
  %61 = getelementptr inbounds nuw i8, ptr %57, i64 8
  store i32 %59, ptr %61, align 8
  %.pre21 = load ptr, ptr @RecordCacheArray, align 8
  br label %ensure_record_cache_typmod_slot_exists.exit20

62:                                               ; preds = %28
  %63 = getelementptr inbounds nuw i8, ptr %32, i64 8
  %64 = load i32, ptr %63, align 8
  %65 = load ptr, ptr @RecordCacheArray, align 8
  %66 = icmp eq ptr %65, null
  br i1 %66, label %67, label %._crit_edge.i16

._crit_edge.i16:                                  ; preds = %62
  %.pre.i17 = load i32, ptr @RecordCacheArrayLen, align 4
  br label %70

67:                                               ; preds = %62
  %68 = load ptr, ptr @CacheMemoryContext, align 8
  %69 = call ptr @MemoryContextAllocZero(ptr noundef %68, i64 noundef 1024) #16
  store ptr %69, ptr @RecordCacheArray, align 8
  store i32 64, ptr @RecordCacheArrayLen, align 4
  br label %70

70:                                               ; preds = %67, %._crit_edge.i16
  %71 = phi ptr [ %65, %._crit_edge.i16 ], [ %69, %67 ]
  %72 = phi i32 [ %.pre.i17, %._crit_edge.i16 ], [ 64, %67 ]
  %.not.i18 = icmp slt i32 %64, %72
  br i1 %.not.i18, label %ensure_record_cache_typmod_slot_exists.exit20, label %73

73:                                               ; preds = %70
  %74 = add i32 %64, 1
  %75 = call range(i32 0, 33) i32 @llvm.ctpop.i32(i32 %74)
  %76 = icmp samesign ult i32 %75, 2
  %77 = call range(i32 0, 33) i32 @llvm.ctlz.i32(i32 %74, i1 true)
  %78 = xor i32 %77, 31
  %79 = shl nuw i32 2, %78
  %.0.i.i19 = select i1 %76, i32 %74, i32 %79
  %80 = sext i32 %72 to i64
  %81 = shl nsw i64 %80, 4
  %82 = sext i32 %.0.i.i19 to i64
  %83 = shl nsw i64 %82, 4
  %84 = call ptr @repalloc0(ptr noundef %71, i64 noundef %81, i64 noundef %83) #16
  store ptr %84, ptr @RecordCacheArray, align 8
  store i32 %.0.i.i19, ptr @RecordCacheArrayLen, align 4
  br label %ensure_record_cache_typmod_slot_exists.exit20

ensure_record_cache_typmod_slot_exists.exit20:    ; preds = %73, %70, %ensure_record_cache_typmod_slot_exists.exit
  %85 = phi ptr [ %.pre21, %ensure_record_cache_typmod_slot_exists.exit ], [ %71, %70 ], [ %84, %73 ]
  %.0 = phi ptr [ %57, %ensure_record_cache_typmod_slot_exists.exit ], [ %32, %70 ], [ %32, %73 ]
  %86 = getelementptr inbounds nuw i8, ptr %.0, i64 8
  %87 = load i32, ptr %86, align 8
  %88 = sext i32 %87 to i64
  %89 = getelementptr inbounds %struct.RecordCacheArrayEntry, ptr %85, i64 %88, i32 1
  store ptr %.0, ptr %89, align 8
  %90 = load i64, ptr @tupledesc_id_counter, align 8
  %91 = add i64 %90, 1
  store i64 %91, ptr @tupledesc_id_counter, align 8
  %92 = load i32, ptr %86, align 8
  %93 = sext i32 %92 to i64
  %94 = getelementptr inbounds %struct.RecordCacheArrayEntry, ptr %85, i64 %93
  store i64 %91, ptr %94, align 8
  %95 = load ptr, ptr @RecordCacheHash, align 8
  %96 = call ptr @hash_search(ptr noundef %95, ptr noundef nonnull %2, i32 noundef 1, ptr noundef null) #16
  store ptr %.0, ptr %96, align 8
  %97 = load i32, ptr %86, align 8
  %98 = load ptr, ptr %2, align 8
  %99 = getelementptr inbounds nuw i8, ptr %98, i64 8
  store i32 %97, ptr %99, align 8
  store ptr %30, ptr @CurrentMemoryContext, align 8
  br label %100

100:                                              ; preds = %ensure_record_cache_typmod_slot_exists.exit20, %23
  call void @llvm.lifetime.end.p0(i64 1, ptr nonnull %3) #16
  ret void
}